target datalayout = "e-m:e-p270:32:32-p271:32:32-p272:64:64-i64:64-i128:128-f80:128-n8:16:32:64-S128"
target triple = "x86_64-pc-linux-gnu"

%union.pthread_mutex_t = type { %struct.__pthread_mutex_s }
%struct.__pthread_mutex_s = type { i32, i32, i32, i32, i32, i16, i16, %struct.__pthread_internal_list }
%struct.__pthread_internal_list = type { ptr, ptr }
%struct.timeval = type { i64, i64 }
%struct.threadpool_tag = type { %union.pthread_mutex_t, %union.pthread_cond_t, %union.pthread_attr_t, %union.pthread_cond_t, %union.pthread_cond_t, %union.pthread_cond_t, i32, i32, i32, i32, i32, i32, i32, ptr, ptr, ptr, ptr }
%union.pthread_attr_t = type { i64, [48 x i8] }
%union.pthread_cond_t = type { %struct.__pthread_cond_s }
%struct.__pthread_cond_s = type { %union.__atomic_wide_counter, %union.__atomic_wide_counter, [2 x i32], [2 x i32], i32, i32, [2 x i32] }
%union.__atomic_wide_counter = type { i64 }
%struct.work_queue_tag = type { ptr, ptr, i32, i32 }
%struct.work_item_tag = type { ptr, ptr, %struct.timeval }

@.str.18 = private unnamed_addr constant [19 x i8] c"Mutex lock failed\0A\00", align 1
@.str.19 = private unnamed_addr constant [21 x i8] c"Mutex unlock failed\0A\00", align 1
@.str.32 = private unnamed_addr constant [29 x i8] c"THRMGR: contended, sleeping\0A\00", align 1
@.str.33 = private unnamed_addr constant [26 x i8] c"THRMGR: contended, woken\0A\00", align 1
@.str.34 = private unnamed_addr constant [23 x i8] c"pthread_create failed\0A\00", align 1

; Function Attrs: nounwind uwtable
define internal i32 @work_queue_add(ptr noundef %0, ptr noundef %1) #0 {
  %3 = alloca i32, align 4
  %4 = alloca ptr, align 8
  %5 = alloca ptr, align 8
  %6 = alloca ptr, align 8
  store ptr %0, ptr %4, align 8
  store ptr %1, ptr %5, align 8
  %7 = load ptr, ptr %4, align 8
  %8 = icmp ne ptr %7, null
  br i1 %8, label %10, label %9

9:                                                ; preds = %2
  store i32 0, ptr %3, align 4
  br label %50

10:                                               ; preds = %2
  %11 = call noalias ptr @malloc(i64 noundef 32) #11
  store ptr %11, ptr %6, align 8
  %12 = load ptr, ptr %6, align 8
  %13 = icmp ne ptr %12, null
  br i1 %13, label %15, label %14

14:                                               ; preds = %10
  store i32 0, ptr %3, align 4
  br label %50

15:                                               ; preds = %10
  %16 = load ptr, ptr %6, align 8
  %17 = getelementptr inbounds %struct.work_item_tag, ptr %16, i32 0, i32 0
  store ptr null, ptr %17, align 8
  %18 = load ptr, ptr %5, align 8
  %19 = load ptr, ptr %6, align 8
  %20 = getelementptr inbounds %struct.work_item_tag, ptr %19, i32 0, i32 1
  store ptr %18, ptr %20, align 8
  %21 = load ptr, ptr %6, align 8
  %22 = getelementptr inbounds %struct.work_item_tag, ptr %21, i32 0, i32 2
  %23 = call i32 @gettimeofday(ptr noundef %22, ptr noundef null) #8
  %24 = load ptr, ptr %4, align 8
  %25 = getelementptr inbounds %struct.work_queue_tag, ptr %24, i32 0, i32 0
  %26 = load ptr, ptr %25, align 8
  %27 = icmp eq ptr %26, null
  br i1 %27, label %28, label %36

28:                                               ; preds = %15
  %29 = load ptr, ptr %6, align 8
  %30 = load ptr, ptr %4, align 8
  %31 = getelementptr inbounds %struct.work_queue_tag, ptr %30, i32 0, i32 1
  store ptr %29, ptr %31, align 8
  %32 = load ptr, ptr %4, align 8
  %33 = getelementptr inbounds %struct.work_queue_tag, ptr %32, i32 0, i32 0
  store ptr %29, ptr %33, align 8
  %34 = load ptr, ptr %4, align 8
  %35 = getelementptr inbounds %struct.work_queue_tag, ptr %34, i32 0, i32 2
  store i32 1, ptr %35, align 8
  br label %49

36:                                               ; preds = %15
  %37 = load ptr, ptr %6, align 8
  %38 = load ptr, ptr %4, align 8
  %39 = getelementptr inbounds %struct.work_queue_tag, ptr %38, i32 0, i32 1
  %40 = load ptr, ptr %39, align 8
  %41 = getelementptr inbounds %struct.work_item_tag, ptr %40, i32 0, i32 0
  store ptr %37, ptr %41, align 8
  %42 = load ptr, ptr %6, align 8
  %43 = load ptr, ptr %4, align 8
  %44 = getelementptr inbounds %struct.work_queue_tag, ptr %43, i32 0, i32 1
  store ptr %42, ptr %44, align 8
  %45 = load ptr, ptr %4, align 8
  %46 = getelementptr inbounds %struct.work_queue_tag, ptr %45, i32 0, i32 2
  %47 = load i32, ptr %46, align 8
  %48 = add nsw i32 %47, 1
  store i32 %48, ptr %46, align 8
  br label %49

49:                                               ; preds = %36, %28
  store i32 1, ptr %3, align 4
  br label %50

50:                                               ; preds = %49, %14, %9
  %51 = load i32, ptr %3, align 4
  ret i32 %51
}

; Function Attrs: nounwind uwtable
define internal i32 @thrmgr_contended(ptr noundef %0, i32 noundef %1) #0 {
  %3 = alloca i32, align 4
  %4 = alloca ptr, align 8
  %5 = alloca i32, align 4
  store ptr %0, ptr %4, align 8
  store i32 %1, ptr %5, align 4
  %6 = load i32, ptr %5, align 4
  %7 = icmp ne i32 %6, 0
  br i1 %7, label %8, label %20

8:                                                ; preds = %2
  %9 = load ptr, ptr %4, align 8
  %10 = getelementptr inbounds %struct.threadpool_tag, ptr %9, i32 0, i32 15
  %11 = load ptr, ptr %10, align 8
  %12 = getelementptr inbounds %struct.work_queue_tag, ptr %11, i32 0, i32 2
  %13 = load i32, ptr %12, align 8
  %14 = load ptr, ptr %4, align 8
  %15 = getelementptr inbounds %struct.threadpool_tag, ptr %14, i32 0, i32 8
  %16 = load i32, ptr %15, align 8
  %17 = sdiv i32 %16, 2
  %18 = icmp sge i32 %13, %17
  br i1 %18, label %19, label %20

19:                                               ; preds = %8
  store i32 1, ptr %3, align 4
  br label %45

20:                                               ; preds = %8, %2
  %21 = load ptr, ptr %4, align 8
  %22 = getelementptr inbounds %struct.threadpool_tag, ptr %21, i32 0, i32 15
  %23 = load ptr, ptr %22, align 8
  %24 = getelementptr inbounds %struct.work_queue_tag, ptr %23, i32 0, i32 2
  %25 = load i32, ptr %24, align 8
  %26 = load ptr, ptr %4, align 8
  %27 = getelementptr inbounds %struct.threadpool_tag, ptr %26, i32 0, i32 16
  %28 = load ptr, ptr %27, align 8
  %29 = getelementptr inbounds %struct.work_queue_tag, ptr %28, i32 0, i32 2
  %30 = load i32, ptr %29, align 8
  %31 = add nsw i32 %25, %30
  %32 = load ptr, ptr %4, align 8
  %33 = getelementptr inbounds %struct.threadpool_tag, ptr %32, i32 0, i32 9
  %34 = load i32, ptr %33, align 4
  %35 = add nsw i32 %31, %34
  %36 = load ptr, ptr %4, align 8
  %37 = getelementptr inbounds %struct.threadpool_tag, ptr %36, i32 0, i32 10
  %38 = load i32, ptr %37, align 8
  %39 = sub nsw i32 %35, %38
  %40 = load ptr, ptr %4, align 8
  %41 = getelementptr inbounds %struct.threadpool_tag, ptr %40, i32 0, i32 8
  %42 = load i32, ptr %41, align 8
  %43 = icmp sge i32 %39, %42
  %44 = zext i1 %43 to i32
  store i32 %44, ptr %3, align 4
  br label %45

45:                                               ; preds = %20, %19
  %46 = load i32, ptr %3, align 4
  ret i32 %46
}

; Function Attrs: nounwind uwtable
define internal i32 @thrmgr_dispatch_internal(ptr noundef %0, ptr noundef %1, i32 noundef %2) #0 {
  %4 = alloca i32, align 4
  %5 = alloca ptr, align 8
  %6 = alloca ptr, align 8
  %7 = alloca i32, align 4
  %8 = alloca i32, align 4
  %9 = alloca i64, align 8
  %10 = alloca ptr, align 8
  %11 = alloca ptr, align 8
  %12 = alloca i32, align 4
  store ptr %0, ptr %5, align 8
  store ptr %1, ptr %6, align 8
  store i32 %2, ptr %7, align 4
  store i32 1, ptr %8, align 4
  %13 = load ptr, ptr %5, align 8
  %14 = icmp ne ptr %13, null
  br i1 %14, label %16, label %15

15:                                               ; preds = %3
  store i32 0, ptr %4, align 4
  br label %116

16:                                               ; preds = %3
  %17 = load ptr, ptr %5, align 8
  %18 = getelementptr inbounds %struct.threadpool_tag, ptr %17, i32 0, i32 0
  %19 = call i32 @pthread_mutex_lock(ptr noundef %18) #8
  %20 = icmp ne i32 %19, 0
  br i1 %20, label %21, label %23

21:                                               ; preds = %16
  %22 = call i32 (i32, ptr, ...) @logg(i32 noundef 5, ptr noundef @.str.18)
  store i32 0, ptr %4, align 4
  br label %116

23:                                               ; preds = %16
  br label %24

24:                                               ; preds = %23
  %25 = load ptr, ptr %5, align 8
  %26 = getelementptr inbounds %struct.threadpool_tag, ptr %25, i32 0, i32 6
  %27 = load i32, ptr %26, align 8
  %28 = icmp ne i32 %27, 1
  br i1 %28, label %29, label %30

29:                                               ; preds = %24
  store i32 0, ptr %8, align 4
  br label %107

30:                                               ; preds = %24
  %31 = load i32, ptr %7, align 4
  %32 = icmp ne i32 %31, 0
  br i1 %32, label %33, label %39

33:                                               ; preds = %30
  %34 = load ptr, ptr %5, align 8
  %35 = getelementptr inbounds %struct.threadpool_tag, ptr %34, i32 0, i32 15
  %36 = load ptr, ptr %35, align 8
  store ptr %36, ptr %10, align 8
  %37 = load ptr, ptr %5, align 8
  %38 = getelementptr inbounds %struct.threadpool_tag, ptr %37, i32 0, i32 5
  store ptr %38, ptr %11, align 8
  br label %45

39:                                               ; preds = %30
  %40 = load ptr, ptr %5, align 8
  %41 = getelementptr inbounds %struct.threadpool_tag, ptr %40, i32 0, i32 16
  %42 = load ptr, ptr %41, align 8
  store ptr %42, ptr %10, align 8
  %43 = load ptr, ptr %5, align 8
  %44 = getelementptr inbounds %struct.threadpool_tag, ptr %43, i32 0, i32 4
  store ptr %44, ptr %11, align 8
  br label %45

45:                                               ; preds = %39, %33
  br label %46

46:                                               ; preds = %51, %45
  %47 = load ptr, ptr %5, align 8
  %48 = load i32, ptr %7, align 4
  %49 = call i32 @thrmgr_contended(ptr noundef %47, i32 noundef %48)
  %50 = icmp ne i32 %49, 0
  br i1 %50, label %51, label %58

51:                                               ; preds = %46
  %52 = call i32 (i32, ptr, ...) @logg(i32 noundef 3, ptr noundef @.str.32)
  %53 = load ptr, ptr %11, align 8
  %54 = load ptr, ptr %5, align 8
  %55 = getelementptr inbounds %struct.threadpool_tag, ptr %54, i32 0, i32 0
  %56 = call i32 @pthread_cond_wait(ptr noundef %53, ptr noundef %55)
  %57 = call i32 (i32, ptr, ...) @logg(i32 noundef 3, ptr noundef @.str.33)
  br label %46

58:                                               ; preds = %46
  %59 = load ptr, ptr %10, align 8
  %60 = load ptr, ptr %6, align 8
  %61 = call i32 @work_queue_add(ptr noundef %59, ptr noundef %60)
  %62 = icmp ne i32 %61, 0
  br i1 %62, label %64, label %63

63:                                               ; preds = %58
  store i32 0, ptr %8, align 4
  br label %107

64:                                               ; preds = %58
  %65 = load ptr, ptr %5, align 8
  %66 = getelementptr inbounds %struct.threadpool_tag, ptr %65, i32 0, i32 16
  %67 = load ptr, ptr %66, align 8
  %68 = getelementptr inbounds %struct.work_queue_tag, ptr %67, i32 0, i32 2
  %69 = load i32, ptr %68, align 8
  %70 = load ptr, ptr %5, align 8
  %71 = getelementptr inbounds %struct.threadpool_tag, ptr %70, i32 0, i32 15
  %72 = load ptr, ptr %71, align 8
  %73 = getelementptr inbounds %struct.work_queue_tag, ptr %72, i32 0, i32 2
  %74 = load i32, ptr %73, align 8
  %75 = add nsw i32 %69, %74
  store i32 %75, ptr %12, align 4
  %76 = load ptr, ptr %5, align 8
  %77 = getelementptr inbounds %struct.threadpool_tag, ptr %76, i32 0, i32 10
  %78 = load i32, ptr %77, align 8
  %79 = load i32, ptr %12, align 4
  %80 = icmp slt i32 %78, %79
  br i1 %80, label %81, label %103

81:                                               ; preds = %64
  %82 = load ptr, ptr %5, align 8
  %83 = getelementptr inbounds %struct.threadpool_tag, ptr %82, i32 0, i32 9
  %84 = load i32, ptr %83, align 4
  %85 = load ptr, ptr %5, align 8
  %86 = getelementptr inbounds %struct.threadpool_tag, ptr %85, i32 0, i32 7
  %87 = load i32, ptr %86, align 4
  %88 = icmp slt i32 %84, %87
  br i1 %88, label %89, label %103

89:                                               ; preds = %81
  %90 = load ptr, ptr %5, align 8
  %91 = getelementptr inbounds %struct.threadpool_tag, ptr %90, i32 0, i32 2
  %92 = load ptr, ptr %5, align 8
  %93 = call i32 @pthread_create(ptr noundef %9, ptr noundef %91, ptr noundef @thrmgr_worker, ptr noundef %92) #8
  %94 = icmp ne i32 %93, 0
  br i1 %94, label %95, label %97

95:                                               ; preds = %89
  %96 = call i32 (i32, ptr, ...) @logg(i32 noundef 5, ptr noundef @.str.34)
  br label %102

97:                                               ; preds = %89
  %98 = load ptr, ptr %5, align 8
  %99 = getelementptr inbounds %struct.threadpool_tag, ptr %98, i32 0, i32 9
  %100 = load i32, ptr %99, align 4
  %101 = add nsw i32 %100, 1
  store i32 %101, ptr %99, align 4
  br label %102

102:                                              ; preds = %97, %95
  br label %103

103:                                              ; preds = %102, %81, %64
  %104 = load ptr, ptr %5, align 8
  %105 = getelementptr inbounds %struct.threadpool_tag, ptr %104, i32 0, i32 1
  %106 = call i32 @pthread_cond_signal(ptr noundef %105) #8
  br label %107

107:                                              ; preds = %103, %63, %29
  %108 = load ptr, ptr %5, align 8
  %109 = getelementptr inbounds %struct.threadpool_tag, ptr %108, i32 0, i32 0
  %110 = call i32 @pthread_mutex_unlock(ptr noundef %109) #8
  %111 = icmp ne i32 %110, 0
  br i1 %111, label %112, label %114

112:                                              ; preds = %107
  %113 = call i32 (i32, ptr, ...) @logg(i32 noundef 5, ptr noundef @.str.19)
  store i32 0, ptr %4, align 4
  br label %116

114:                                              ; preds = %107
  %115 = load i32, ptr %8, align 4
  store i32 %115, ptr %4, align 4
  br label %116

116:                                              ; preds = %114, %112, %21, %15
  %117 = load i32, ptr %4, align 4
  ret i32 %117
}