; Function Attrs: nounwind uwtable
define internal fastcc noundef i32 @thrmgr_dispatch_internal(ptr noundef %0, ptr noundef %1, i32 noundef %2) unnamed_addr #0 {
  %4 = alloca i64, align 8
  %.not = icmp eq ptr %0, null
  br i1 %.not, label %92, label %5

5:                                                ; preds = %3
  %6 = tail call i32 @pthread_mutex_lock(ptr noundef nonnull %0) #12
  %.not30 = icmp eq i32 %6, 0
  br i1 %.not30, label %9, label %7

7:                                                ; preds = %5
  %8 = tail call i32 (i32, ptr, ...) @logg(i32 noundef 5, ptr noundef nonnull @.str.18) #12
  br label %92

9:                                                ; preds = %5
  %10 = getelementptr inbounds i8, ptr %0, i64 288
  %11 = load i32, ptr %10, align 8
  %.not31 = icmp eq i32 %11, 1
  br i1 %.not31, label %12, label %work_queue_add.exit.thread

12:                                               ; preds = %9
  %.not32 = icmp eq i32 %2, 0
  %13 = getelementptr inbounds i8, ptr %0, i64 336
  %14 = getelementptr inbounds i8, ptr %0, i64 344
  %.027.in = select i1 %.not32, ptr %14, ptr %13
  %.026.v = select i1 %.not32, i64 192, i64 240
  %.026 = getelementptr inbounds i8, ptr %0, i64 %.026.v
  %.027 = load ptr, ptr %.027.in, align 8
  %.phi.trans.insert11.i = getelementptr inbounds i8, ptr %0, i64 296
  %15 = getelementptr inbounds i8, ptr %0, i64 300
  %16 = getelementptr inbounds i8, ptr %0, i64 304
  br i1 %.not32, label %.split.us, label %.split

.split.us:                                        ; preds = %12
  %.pre.i.us46 = load ptr, ptr %13, align 8
  %.phi.trans.insert9.i.us47 = getelementptr inbounds i8, ptr %.pre.i.us46, i64 16
  %.pre10.i.us48 = load i32, ptr %.phi.trans.insert9.i.us47, align 8
  %.pre12.i.us49 = load i32, ptr %.phi.trans.insert11.i, align 8
  %17 = load ptr, ptr %14, align 8
  %18 = getelementptr inbounds i8, ptr %17, i64 16
  %19 = load i32, ptr %18, align 8
  %20 = add nsw i32 %19, %.pre10.i.us48
  %21 = load i32, ptr %15, align 4
  %22 = add nsw i32 %20, %21
  %23 = load i32, ptr %16, align 8
  %24 = sub i32 %22, %23
  %.not43.us51 = icmp slt i32 %24, %.pre12.i.us49
  br i1 %.not43.us51, label %.split45.us, label %thrmgr_contended.exit.thread.us

thrmgr_contended.exit.thread.us:                  ; preds = %.split.us, %thrmgr_contended.exit.thread.us
  %25 = tail call i32 (i32, ptr, ...) @logg(i32 noundef 3, ptr noundef nonnull @.str.32) #12
  %26 = tail call i32 @pthread_cond_wait(ptr noundef nonnull %.026, ptr noundef nonnull %0) #12
  %27 = tail call i32 (i32, ptr, ...) @logg(i32 noundef 3, ptr noundef nonnull @.str.33) #12
  %.pre.i.us = load ptr, ptr %13, align 8
  %.phi.trans.insert9.i.us = getelementptr inbounds i8, ptr %.pre.i.us, i64 16
  %.pre10.i.us = load i32, ptr %.phi.trans.insert9.i.us, align 8
  %.pre12.i.us = load i32, ptr %.phi.trans.insert11.i, align 8
  %28 = load ptr, ptr %14, align 8
  %29 = getelementptr inbounds i8, ptr %28, i64 16
  %30 = load i32, ptr %29, align 8
  %31 = add nsw i32 %30, %.pre10.i.us
  %32 = load i32, ptr %15, align 4
  %33 = add nsw i32 %31, %32
  %34 = load i32, ptr %16, align 8
  %35 = sub i32 %33, %34
  %.not43.us = icmp slt i32 %35, %.pre12.i.us
  br i1 %.not43.us, label %.split45.us, label %thrmgr_contended.exit.thread.us

.split:                                           ; preds = %12, %thrmgr_contended.exit.thread
  %.pre.i = load ptr, ptr %13, align 8
  %.phi.trans.insert9.i = getelementptr inbounds i8, ptr %.pre.i, i64 16
  %.pre10.i = load i32, ptr %.phi.trans.insert9.i, align 8
  %.pre12.i = load i32, ptr %.phi.trans.insert11.i, align 8
  %36 = sdiv i32 %.pre12.i, 2
  %.not8.i = icmp slt i32 %.pre10.i, %36
  br i1 %.not8.i, label %thrmgr_contended.exit, label %thrmgr_contended.exit.thread

thrmgr_contended.exit:                            ; preds = %.split
  %37 = load ptr, ptr %14, align 8
  %38 = getelementptr inbounds i8, ptr %37, i64 16
  %39 = load i32, ptr %38, align 8
  %40 = add nsw i32 %39, %.pre10.i
  %41 = load i32, ptr %15, align 4
  %42 = add nsw i32 %40, %41
  %43 = load i32, ptr %16, align 8
  %44 = sub i32 %42, %43
  %.not43 = icmp slt i32 %44, %.pre12.i
  br i1 %.not43, label %.split45.us, label %thrmgr_contended.exit.thread

thrmgr_contended.exit.thread:                     ; preds = %.split, %thrmgr_contended.exit
  %45 = tail call i32 (i32, ptr, ...) @logg(i32 noundef 3, ptr noundef nonnull @.str.32) #12
  %46 = tail call i32 @pthread_cond_wait(ptr noundef nonnull %.026, ptr noundef nonnull %0) #12
  %47 = tail call i32 (i32, ptr, ...) @logg(i32 noundef 3, ptr noundef nonnull @.str.33) #12
  br label %.split

.split45.us:                                      ; preds = %thrmgr_contended.exit, %thrmgr_contended.exit.thread.us, %.split.us
  %.not.i37 = icmp eq ptr %.027, null
  br i1 %.not.i37, label %work_queue_add.exit.thread, label %48

48:                                               ; preds = %.split45.us
  %49 = tail call noalias dereferenceable_or_null(32) ptr @malloc(i64 noundef 32) #15
  %.not18.i = icmp eq ptr %49, null
  br i1 %.not18.i, label %work_queue_add.exit.thread, label %50

50:                                               ; preds = %48
  store ptr null, ptr %49, align 8
  %51 = getelementptr inbounds i8, ptr %49, i64 8
  store ptr %1, ptr %51, align 8
  %52 = getelementptr inbounds i8, ptr %49, i64 16
  %53 = tail call i32 @gettimeofday(ptr noundef nonnull %52, ptr noundef null) #12
  %54 = load ptr, ptr %.027, align 8
  %55 = icmp eq ptr %54, null
  %56 = getelementptr inbounds i8, ptr %.027, i64 8
  br i1 %55, label %57, label %59

57:                                               ; preds = %50
  store ptr %49, ptr %56, align 8
  store ptr %49, ptr %.027, align 8
  %58 = getelementptr inbounds i8, ptr %.027, i64 16
  store i32 1, ptr %58, align 8
  br label %work_queue_add.exit

59:                                               ; preds = %50
  %60 = load ptr, ptr %56, align 8
  store ptr %49, ptr %60, align 8
  store ptr %49, ptr %56, align 8
  %61 = getelementptr inbounds i8, ptr %.027, i64 16
  %62 = load i32, ptr %61, align 8
  %63 = add nsw i32 %62, 1
  store i32 %63, ptr %61, align 8
  br label %work_queue_add.exit

work_queue_add.exit:                              ; preds = %59, %57
  %64 = load ptr, ptr %14, align 8
  %65 = getelementptr inbounds i8, ptr %64, i64 16
  %66 = load i32, ptr %65, align 8
  %67 = load ptr, ptr %13, align 8
  %68 = getelementptr inbounds i8, ptr %67, i64 16
  %69 = load i32, ptr %68, align 8
  %70 = add nsw i32 %69, %66
  %71 = load i32, ptr %16, align 8
  %72 = icmp slt i32 %71, %70
  br i1 %72, label %73, label %86

73:                                               ; preds = %work_queue_add.exit
  %74 = load i32, ptr %15, align 4
  %75 = getelementptr inbounds i8, ptr %0, i64 292
  %76 = load i32, ptr %75, align 4
  %77 = icmp slt i32 %74, %76
  br i1 %77, label %78, label %86

78:                                               ; preds = %73
  %79 = getelementptr inbounds i8, ptr %0, i64 88
  %80 = call i32 @pthread_create(ptr noundef nonnull %4, ptr noundef nonnull %79, ptr noundef nonnull @thrmgr_worker, ptr noundef nonnull %0) #12
  %.not35 = icmp eq i32 %80, 0
  br i1 %.not35, label %83, label %81

81:                                               ; preds = %78
  %82 = call i32 (i32, ptr, ...) @logg(i32 noundef 5, ptr noundef nonnull @.str.34) #12
  br label %86

83:                                               ; preds = %78
  %84 = load i32, ptr %15, align 4
  %85 = add nsw i32 %84, 1
  store i32 %85, ptr %15, align 4
  br label %86

86:                                               ; preds = %81, %83, %73, %work_queue_add.exit
  %87 = getelementptr inbounds i8, ptr %0, i64 40
  %88 = call i32 @pthread_cond_signal(ptr noundef nonnull %87) #12
  br label %work_queue_add.exit.thread

work_queue_add.exit.thread:                       ; preds = %48, %.split45.us, %9, %86
  %.028 = phi i32 [ 1, %86 ], [ 0, %9 ], [ 0, %.split45.us ], [ 0, %48 ]
  %89 = call i32 @pthread_mutex_unlock(ptr noundef nonnull %0) #12
  %.not36 = icmp eq i32 %89, 0
  br i1 %.not36, label %92, label %90

90:                                               ; preds = %work_queue_add.exit.thread
  %91 = call i32 (i32, ptr, ...) @logg(i32 noundef 5, ptr noundef nonnull @.str.19) #12
  br label %92

92:                                               ; preds = %work_queue_add.exit.thread, %3, %90, %7
  %.0 = phi i32 [ 0, %7 ], [ 0, %90 ], [ 0, %3 ], [ %.028, %work_queue_add.exit.thread ]
  ret i32 %.0
}